; Function Attrs: nounwind uwtable
define ptr @l_Lean_IR_explicitRC(ptr noundef %0, ptr readnone captures(none) %1, ptr noundef %2) local_unnamed_addr #0 {
  %4 = tail call ptr @l_Lean_IR_getEnv___rarg(ptr noundef %2) #6
  %.val = load i32, ptr %4, align 4, !tbaa !8
  %5 = icmp eq i32 %.val, 1
  %6 = getelementptr inbounds nuw i8, ptr %4, i64 8
  %7 = load ptr, ptr %6, align 8, !tbaa !4
  br i1 %5, label %8, label %19

8:                                                ; preds = %3
  %9 = getelementptr i8, ptr %0, i64 8
  %.val35 = load i64, ptr %9, align 8, !tbaa !13
  %10 = ptrtoint ptr %0 to i64
  %11 = and i64 %10, 1
  %.not49 = icmp eq i64 %11, 0
  br i1 %.not49, label %12, label %lean_inc.exit33

12:                                               ; preds = %8
  %.val.i = load i32, ptr %0, align 4, !tbaa !8
  %13 = icmp sgt i32 %.val.i, 0
  br i1 %13, label %14, label %16, !prof !11

14:                                               ; preds = %12
  %15 = add nuw i32 %.val.i, 1
  store i32 %15, ptr %0, align 4, !tbaa !8
  br label %lean_inc.exit33

16:                                               ; preds = %12
  %.not.i36 = icmp eq i32 %.val.i, 0
  br i1 %.not.i36, label %lean_inc.exit33, label %17

17:                                               ; preds = %16
  tail call void @lean_inc_ref_cold(ptr noundef nonnull %0) #6
  br label %lean_inc.exit33

lean_inc.exit33:                                  ; preds = %17, %16, %14, %8
  %18 = tail call ptr @l_Array_mapMUnsafe_map___at_Lean_IR_explicitRC___spec__1(ptr noundef nonnull %0, ptr noundef %7, i64 noundef %.val35, i64 noundef 0, ptr noundef nonnull %0)
  store ptr %18, ptr %6, align 8, !tbaa !4
  br label %63

19:                                               ; preds = %3
  %20 = getelementptr inbounds nuw i8, ptr %4, i64 16
  %21 = load ptr, ptr %20, align 8, !tbaa !4
  %22 = ptrtoint ptr %21 to i64
  %23 = and i64 %22, 1
  %.not = icmp eq i64 %23, 0
  br i1 %.not, label %24, label %lean_inc.exit32

24:                                               ; preds = %19
  %.val.i37 = load i32, ptr %21, align 4, !tbaa !8
  %25 = icmp sgt i32 %.val.i37, 0
  br i1 %25, label %26, label %28, !prof !11

26:                                               ; preds = %24
  %27 = add nuw i32 %.val.i37, 1
  store i32 %27, ptr %21, align 4, !tbaa !8
  br label %lean_inc.exit32

28:                                               ; preds = %24
  %.not.i38 = icmp eq i32 %.val.i37, 0
  br i1 %.not.i38, label %lean_inc.exit32, label %29

29:                                               ; preds = %28
  tail call void @lean_inc_ref_cold(ptr noundef nonnull %21) #6
  br label %lean_inc.exit32

lean_inc.exit32:                                  ; preds = %29, %28, %26, %19
  %30 = ptrtoint ptr %7 to i64
  %31 = and i64 %30, 1
  %.not46 = icmp eq i64 %31, 0
  br i1 %.not46, label %32, label %lean_inc.exit31

32:                                               ; preds = %lean_inc.exit32
  %.val.i40 = load i32, ptr %7, align 4, !tbaa !8
  %33 = icmp sgt i32 %.val.i40, 0
  br i1 %33, label %34, label %36, !prof !11

34:                                               ; preds = %32
  %35 = add nuw i32 %.val.i40, 1
  store i32 %35, ptr %7, align 4, !tbaa !8
  br label %lean_inc.exit31

36:                                               ; preds = %32
  %.not.i41 = icmp eq i32 %.val.i40, 0
  br i1 %.not.i41, label %lean_inc.exit31, label %37

37:                                               ; preds = %36
  tail call void @lean_inc_ref_cold(ptr noundef nonnull %7) #6
  br label %lean_inc.exit31

lean_inc.exit31:                                  ; preds = %37, %36, %34, %lean_inc.exit32
  %38 = ptrtoint ptr %4 to i64
  %39 = and i64 %38, 1
  %.not47 = icmp eq i64 %39, 0
  br i1 %.not47, label %40, label %lean_dec.exit

40:                                               ; preds = %lean_inc.exit31
  %41 = load i32, ptr %4, align 4, !tbaa !8
  %42 = icmp sgt i32 %41, 1
  br i1 %42, label %43, label %45, !prof !11

43:                                               ; preds = %40
  %44 = add nsw i32 %41, -1
  store i32 %44, ptr %4, align 4, !tbaa !8
  br label %lean_dec.exit

45:                                               ; preds = %40
  %.not.i = icmp eq i32 %41, 0
  br i1 %.not.i, label %lean_dec.exit, label %46

46:                                               ; preds = %45
  tail call void @lean_dec_ref_cold(ptr noundef nonnull %4) #6
  br label %lean_dec.exit

lean_dec.exit:                                    ; preds = %46, %45, %43, %lean_inc.exit31
  %47 = getelementptr i8, ptr %0, i64 8
  %.val34 = load i64, ptr %47, align 8, !tbaa !13
  %48 = ptrtoint ptr %0 to i64
  %49 = and i64 %48, 1
  %.not48 = icmp eq i64 %49, 0
  br i1 %.not48, label %50, label %lean_inc.exit

50:                                               ; preds = %lean_dec.exit
  %.val.i43 = load i32, ptr %0, align 4, !tbaa !8
  %51 = icmp sgt i32 %.val.i43, 0
  br i1 %51, label %52, label %54, !prof !11

52:                                               ; preds = %50
  %53 = add nuw i32 %.val.i43, 1
  store i32 %53, ptr %0, align 4, !tbaa !8
  br label %lean_inc.exit

54:                                               ; preds = %50
  %.not.i44 = icmp eq i32 %.val.i43, 0
  br i1 %.not.i44, label %lean_inc.exit, label %55

55:                                               ; preds = %54
  tail call void @lean_inc_ref_cold(ptr noundef nonnull %0) #6
  br label %lean_inc.exit

lean_inc.exit:                                    ; preds = %55, %54, %52, %lean_dec.exit
  %56 = tail call ptr @l_Array_mapMUnsafe_map___at_Lean_IR_explicitRC___spec__1(ptr noundef nonnull %0, ptr noundef %7, i64 noundef %.val34, i64 noundef 0, ptr noundef nonnull %0)
  tail call void @lean_inc_heartbeat() #6
  %57 = tail call noalias ptr @mi_malloc_small(i64 noundef 24) #6
  %58 = icmp eq ptr %57, null
  br i1 %58, label %59, label %lean_alloc_ctor.exit

59:                                               ; preds = %lean_inc.exit
  tail call void @lean_internal_panic_out_of_memory() #7
  unreachable

lean_alloc_ctor.exit:                             ; preds = %lean_inc.exit
  %60 = getelementptr inbounds nuw i8, ptr %57, i64 4
  store i32 1, ptr %57, align 4, !tbaa !8
  store i32 131096, ptr %60, align 4
  %61 = getelementptr inbounds nuw i8, ptr %57, i64 8
  store ptr %56, ptr %61, align 8, !tbaa !4
  %62 = getelementptr inbounds nuw i8, ptr %57, i64 16
  store ptr %21, ptr %62, align 8, !tbaa !4
  br label %63

63:                                               ; preds = %lean_alloc_ctor.exit, %lean_inc.exit33
  %.0 = phi ptr [ %4, %lean_inc.exit33 ], [ %57, %lean_alloc_ctor.exit ]
  ret ptr %.0
}